target datalayout = "e-m:e-p270:32:32-p271:32:32-p272:64:64-i64:64-i128:128-f80:128-n8:16:32:64-S128"
target triple = "x86_64-pc-linux-gnu"

%struct.FT_ListRec_ = type { ptr, ptr }
%struct.SFNT_Interface_ = type { ptr, ptr, ptr, ptr, ptr, ptr, ptr, ptr, ptr, ptr, ptr, ptr, ptr, ptr, ptr, ptr, ptr, ptr, ptr, ptr, ptr, ptr, ptr, ptr, ptr, ptr, ptr, ptr, ptr, ptr, ptr, ptr, ptr, ptr, ptr, ptr, ptr, ptr, ptr, ptr, ptr, ptr, ptr, ptr, ptr, ptr, ptr, ptr }
%struct.FT_FaceRec_ = type { i64, i64, i64, i64, i64, ptr, ptr, i32, ptr, i32, ptr, %struct.FT_Generic_, %struct.FT_BBox_, i16, i16, i16, i16, i16, i16, i16, i16, ptr, ptr, ptr, ptr, ptr, ptr, %struct.FT_ListRec_, %struct.FT_Generic_, ptr, ptr }
%struct.FT_BBox_ = type { i64, i64, i64, i64 }
%struct.FT_Generic_ = type { ptr, ptr }
%struct.TT_FaceRec_ = type { %struct.FT_FaceRec_, %struct.TTC_HeaderRec_, i64, i16, ptr, %struct.TT_Header_, %struct.TT_HoriHeader_, %struct.TT_MaxProfile_, i8, %struct.TT_VertHeader_, i16, %struct.TT_NameTableRec_, %struct.TT_OS2_, %struct.TT_Postscript_, ptr, i64, ptr, ptr, ptr, ptr, ptr, ptr, ptr, ptr, ptr, ptr, ptr, ptr, %struct.TT_Gasp_, %struct.TT_PCLT_, i64, ptr, %struct.TT_Post_NamesRec_, %struct.FT_Palette_Data_, i16, ptr, i8, %struct.FT_Color_, i64, ptr, i64, ptr, i64, ptr, ptr, %struct.FT_Generic_, ptr, i64, i64, i8, i8, ptr, i32, ptr, i32, i32, ptr, i64, i64, i64, ptr, ptr, i64, i32, i64, ptr, ptr, i64, i32, i32, ptr, ptr, i64, i32, i32, i32, %struct.TT_BDFRec_, i64, i64, i64, i64, ptr, ptr, ptr }
%struct.TTC_HeaderRec_ = type { i64, i64, i64, ptr }
%struct.TT_Header_ = type { i64, i64, i64, i64, i16, i16, [2 x i64], [2 x i64], i16, i16, i16, i16, i16, i16, i16, i16, i16 }
%struct.TT_HoriHeader_ = type { i64, i16, i16, i16, i16, i16, i16, i16, i16, i16, i16, [4 x i16], i16, i16, ptr, ptr }
%struct.TT_MaxProfile_ = type { i64, i16, i16, i16, i16, i16, i16, i16, i16, i16, i16, i16, i16, i16, i16 }
%struct.TT_VertHeader_ = type { i64, i16, i16, i16, i16, i16, i16, i16, i16, i16, i16, [4 x i16], i16, i16, ptr, ptr }
%struct.TT_NameTableRec_ = type { i16, i32, i32, ptr, i32, ptr, ptr }
%struct.TT_OS2_ = type { i16, i16, i16, i16, i16, i16, i16, i16, i16, i16, i16, i16, i16, i16, i16, i16, [10 x i8], i64, i64, i64, i64, [4 x i8], i16, i16, i16, i16, i16, i16, i16, i16, i64, i64, i16, i16, i16, i16, i16, i16, i16 }
%struct.TT_Postscript_ = type { i64, i64, i16, i16, i64, i64, i64, i64, i64 }
%struct.TT_Gasp_ = type { i16, i16, ptr }
%struct.TT_PCLT_ = type { i64, i64, i16, i16, i16, i16, i16, i16, [16 x i8], [8 x i8], [6 x i8], i8, i8, i8, i8 }
%struct.TT_Post_NamesRec_ = type { i8, i16, i16, ptr, ptr }
%struct.FT_Palette_Data_ = type { i16, ptr, ptr, i16, ptr }
%struct.FT_Color_ = type { i8, i8, i8, i8 }
%struct.TT_BDFRec_ = type { ptr, ptr, ptr, i64, i32, i8 }
%struct.GX_BlendRec_ = type { i32, ptr, ptr, ptr, i64, ptr, i8, ptr, i8, i8, i32, ptr, i8, i8, i32, ptr, ptr, i32, ptr, i32, ptr, i64 }
%struct.FT_MM_Var_ = type { i32, i32, i32, ptr, ptr }
%struct.FT_Var_Named_Style_ = type { ptr, i32, i32 }

; Function Attrs: nounwind uwtable
define internal i32 @TT_Set_Named_Instance(ptr noundef %0, i32 noundef %1) #0 {
  %3 = alloca ptr, align 8
  %4 = alloca i32, align 4
  %5 = alloca ptr, align 8
  %6 = alloca i32, align 4
  %7 = alloca ptr, align 8
  %8 = alloca ptr, align 8
  %9 = alloca ptr, align 8
  %10 = alloca i32, align 4
  %11 = alloca ptr, align 8
  %12 = alloca ptr, align 8
  %13 = alloca ptr, align 8
  store ptr %0, ptr %3, align 8
  store i32 %1, ptr %4, align 4
  %14 = load ptr, ptr %3, align 8
  store ptr %14, ptr %5, align 8
  %15 = load ptr, ptr %3, align 8
  %16 = getelementptr inbounds %struct.FT_FaceRec_, ptr %15, i32 0, i32 25
  %17 = load ptr, ptr %16, align 8
  store ptr %17, ptr %9, align 8
  %18 = load ptr, ptr %5, align 8
  %19 = getelementptr inbounds %struct.TT_FaceRec_, ptr %18, i32 0, i32 51
  %20 = load ptr, ptr %19, align 8
  %21 = icmp ne ptr %20, null
  br i1 %21, label %28, label %22

22:                                               ; preds = %2
  %23 = load ptr, ptr %3, align 8
  %24 = call i32 @TT_Get_MM_Var(ptr noundef %23, ptr noundef null)
  store i32 %24, ptr %6, align 4
  %25 = icmp ne i32 %24, 0
  br i1 %25, label %26, label %27

26:                                               ; preds = %22
  br label %113

27:                                               ; preds = %22
  br label %28

28:                                               ; preds = %27, %2
  %29 = load ptr, ptr %5, align 8
  %30 = getelementptr inbounds %struct.TT_FaceRec_, ptr %29, i32 0, i32 51
  %31 = load ptr, ptr %30, align 8
  store ptr %31, ptr %7, align 8
  %32 = load ptr, ptr %7, align 8
  %33 = getelementptr inbounds %struct.GX_BlendRec_, ptr %32, i32 0, i32 3
  %34 = load ptr, ptr %33, align 8
  store ptr %34, ptr %8, align 8
  %35 = load ptr, ptr %3, align 8
  %36 = getelementptr inbounds %struct.FT_FaceRec_, ptr %35, i32 0, i32 3
  %37 = load i64, ptr %36, align 8
  %38 = trunc i64 %37 to i32
  %39 = lshr i32 %38, 16
  store i32 %39, ptr %10, align 4
  %40 = load i32, ptr %4, align 4
  %41 = load i32, ptr %10, align 4
  %42 = icmp ugt i32 %40, %41
  br i1 %42, label %43, label %44

43:                                               ; preds = %28
  store i32 6, ptr %6, align 4
  br label %113

44:                                               ; preds = %28
  %45 = load i32, ptr %4, align 4
  %46 = icmp ugt i32 %45, 0
  br i1 %46, label %47, label %90

47:                                               ; preds = %44
  %48 = load ptr, ptr %5, align 8
  %49 = getelementptr inbounds %struct.TT_FaceRec_, ptr %48, i32 0, i32 22
  %50 = load ptr, ptr %49, align 8
  store ptr %50, ptr %11, align 8
  %51 = load ptr, ptr %8, align 8
  %52 = getelementptr inbounds %struct.FT_MM_Var_, ptr %51, i32 0, i32 4
  %53 = load ptr, ptr %52, align 8
  %54 = load i32, ptr %4, align 4
  %55 = zext i32 %54 to i64
  %56 = getelementptr inbounds %struct.FT_Var_Named_Style_, ptr %53, i64 %55
  %57 = getelementptr inbounds %struct.FT_Var_Named_Style_, ptr %56, i64 -1
  store ptr %57, ptr %12, align 8
  %58 = load ptr, ptr %11, align 8
  %59 = getelementptr inbounds %struct.SFNT_Interface_, ptr %58, i32 0, i32 43
  %60 = load ptr, ptr %59, align 8
  %61 = load ptr, ptr %5, align 8
  %62 = load ptr, ptr %12, align 8
  %63 = getelementptr inbounds %struct.FT_Var_Named_Style_, ptr %62, i32 0, i32 1
  %64 = load i32, ptr %63, align 8
  %65 = trunc i32 %64 to i16
  %66 = call i32 %60(ptr noundef %61, i16 noundef zeroext %65, ptr noundef %13)
  store i32 %66, ptr %6, align 4
  %67 = load i32, ptr %6, align 4
  %68 = icmp ne i32 %67, 0
  br i1 %68, label %69, label %70

69:                                               ; preds = %47
  br label %113

70:                                               ; preds = %47
  br label %71

71:                                               ; preds = %70
  %72 = load ptr, ptr %9, align 8
  %73 = load ptr, ptr %3, align 8
  %74 = getelementptr inbounds %struct.FT_FaceRec_, ptr %73, i32 0, i32 6
  %75 = load ptr, ptr %74, align 8
  call void @ft_mem_free(ptr noundef %72, ptr noundef %75)
  %76 = load ptr, ptr %3, align 8
  %77 = getelementptr inbounds %struct.FT_FaceRec_, ptr %76, i32 0, i32 6
  store ptr null, ptr %77, align 8
  br label %78

78:                                               ; preds = %71
  %79 = load ptr, ptr %13, align 8
  %80 = load ptr, ptr %3, align 8
  %81 = getelementptr inbounds %struct.FT_FaceRec_, ptr %80, i32 0, i32 6
  store ptr %79, ptr %81, align 8
  %82 = load ptr, ptr %3, align 8
  %83 = load ptr, ptr %8, align 8
  %84 = getelementptr inbounds %struct.FT_MM_Var_, ptr %83, i32 0, i32 0
  %85 = load i32, ptr %84, align 8
  %86 = load ptr, ptr %12, align 8
  %87 = getelementptr inbounds %struct.FT_Var_Named_Style_, ptr %86, i32 0, i32 0
  %88 = load ptr, ptr %87, align 8
  %89 = call i32 @TT_Set_Var_Design(ptr noundef %82, i32 noundef %85, ptr noundef %88)
  store i32 %89, ptr %6, align 4
  br label %112

90:                                               ; preds = %44
  br label %91

91:                                               ; preds = %90
  %92 = load ptr, ptr %9, align 8
  %93 = load ptr, ptr %3, align 8
  %94 = getelementptr inbounds %struct.FT_FaceRec_, ptr %93, i32 0, i32 6
  %95 = load ptr, ptr %94, align 8
  call void @ft_mem_free(ptr noundef %92, ptr noundef %95)
  %96 = load ptr, ptr %3, align 8
  %97 = getelementptr inbounds %struct.FT_FaceRec_, ptr %96, i32 0, i32 6
  store ptr null, ptr %97, align 8
  br label %98

98:                                               ; preds = %91
  %99 = load ptr, ptr %9, align 8
  %100 = load ptr, ptr %5, align 8
  %101 = getelementptr inbounds %struct.TT_FaceRec_, ptr %100, i32 0, i32 56
  %102 = load ptr, ptr %101, align 8
  %103 = call ptr @ft_mem_strdup(ptr noundef %99, ptr noundef %102, ptr noundef %6)
  %104 = load ptr, ptr %3, align 8
  %105 = getelementptr inbounds %struct.FT_FaceRec_, ptr %104, i32 0, i32 6
  store ptr %103, ptr %105, align 8
  %106 = load i32, ptr %6, align 4
  %107 = icmp ne i32 %106, 0
  br i1 %107, label %108, label %109

108:                                              ; preds = %98
  br label %113

109:                                              ; preds = %98
  %110 = load ptr, ptr %3, align 8
  %111 = call i32 @TT_Set_Var_Design(ptr noundef %110, i32 noundef 0, ptr noundef null)
  store i32 %111, ptr %6, align 4
  br label %112

112:                                              ; preds = %109, %78
  br label %113

113:                                              ; preds = %112, %108, %69, %43, %26
  %114 = load i32, ptr %6, align 4
  ret i32 %114
}