; Function Attrs: nounwind uwtable
define internal i32 @TT_Set_Named_Instance(ptr noundef %0, i32 noundef %1) #2 {
  %3 = alloca i32, align 4
  %4 = alloca ptr, align 8
  %5 = getelementptr inbounds i8, ptr %0, i64 184
  %6 = load ptr, ptr %5, align 8
  %7 = getelementptr inbounds i8, ptr %0, i64 1216
  %8 = load ptr, ptr %7, align 8
  %.not = icmp eq ptr %8, null
  br i1 %.not, label %9, label %11

9:                                                ; preds = %2
  %10 = tail call i32 @TT_Get_MM_Var(ptr noundef nonnull %0, ptr noundef null)
  store i32 %10, ptr %3, align 4
  %.not29 = icmp eq i32 %10, 0
  br i1 %.not29, label %._crit_edge, label %51

._crit_edge:                                      ; preds = %9
  %.pre = load ptr, ptr %7, align 8
  br label %11

11:                                               ; preds = %._crit_edge, %2
  %12 = phi ptr [ %.pre, %._crit_edge ], [ %8, %2 ]
  %13 = getelementptr inbounds i8, ptr %12, i64 24
  %14 = load ptr, ptr %13, align 8
  %15 = getelementptr inbounds i8, ptr %0, i64 24
  %16 = load i64, ptr %15, align 8
  %17 = trunc i64 %16 to i32
  %18 = lshr i32 %17, 16
  %19 = icmp ult i32 %18, %1
  br i1 %19, label %51, label %20

20:                                               ; preds = %11
  %.not30 = icmp eq i32 %1, 0
  br i1 %.not30, label %42, label %21

21:                                               ; preds = %20
  %22 = getelementptr inbounds i8, ptr %0, i64 880
  %23 = load ptr, ptr %22, align 8
  %24 = getelementptr inbounds i8, ptr %14, i64 24
  %25 = load ptr, ptr %24, align 8
  %26 = zext nneg i32 %1 to i64
  %27 = getelementptr inbounds %struct.FT_Var_Named_Style_, ptr %25, i64 %26
  %28 = getelementptr inbounds i8, ptr %23, i64 344
  %29 = load ptr, ptr %28, align 8
  %30 = getelementptr inbounds i8, ptr %27, i64 -8
  %31 = load i32, ptr %30, align 8
  %32 = trunc i32 %31 to i16
  %33 = call i32 %29(ptr noundef nonnull %0, i16 noundef zeroext %32, ptr noundef nonnull %4) #22
  %.not32 = icmp eq i32 %33, 0
  br i1 %.not32, label %34, label %51

34:                                               ; preds = %21
  %35 = getelementptr inbounds i8, ptr %27, i64 -16
  %36 = getelementptr inbounds i8, ptr %0, i64 48
  %37 = load ptr, ptr %36, align 8
  call void @ft_mem_free(ptr noundef %6, ptr noundef %37) #22
  %38 = load ptr, ptr %4, align 8
  store ptr %38, ptr %36, align 8
  %39 = load i32, ptr %14, align 8
  %40 = load ptr, ptr %35, align 8
  %41 = call i32 @TT_Set_Var_Design(ptr noundef nonnull %0, i32 noundef %39, ptr noundef %40)
  br label %51

42:                                               ; preds = %20
  %43 = getelementptr inbounds i8, ptr %0, i64 48
  %44 = load ptr, ptr %43, align 8
  tail call void @ft_mem_free(ptr noundef %6, ptr noundef %44) #22
  store ptr null, ptr %43, align 8
  %45 = getelementptr inbounds i8, ptr %0, i64 1248
  %46 = load ptr, ptr %45, align 8
  %47 = call ptr @ft_mem_strdup(ptr noundef %6, ptr noundef %46, ptr noundef nonnull %3) #22
  store ptr %47, ptr %43, align 8
  %48 = load i32, ptr %3, align 4
  %.not31 = icmp eq i32 %48, 0
  br i1 %.not31, label %49, label %51

49:                                               ; preds = %42
  %50 = call i32 @TT_Set_Var_Design(ptr noundef nonnull %0, i32 noundef 0, ptr noundef null)
  br label %51

51:                                               ; preds = %11, %34, %49, %42, %21, %9
  %52 = phi i32 [ %41, %34 ], [ %50, %49 ], [ %48, %42 ], [ %33, %21 ], [ %10, %9 ], [ 6, %11 ]
  ret i32 %52
}